target datalayout = "e-m:e-p270:32:32-p271:32:32-p272:64:64-i64:64-i128:128-f80:128-n8:16:32:64-S128"
target triple = "x86_64-pc-linux-gnu"

%struct._packet_info = type { ptr, ptr, i32, i32, %struct.nstime_t, %struct.nstime_t, %struct.nstime_t, i8, ptr, ptr, ptr, ptr, %struct._address, %struct._address, %struct._address, %struct._address, %struct._address, %struct._address, i32, ptr, i8, [3 x i8], %struct.anon, i32, i32, i32, i32, ptr, i8, ptr, ptr, i16, i16, i32, i32, i16, i32, i32, ptr, ptr, ptr, i8, i8, i16, i16, i16, i32, i16, i16, ptr, ptr, ptr, ptr, ptr, i32, i32 }
%struct.nstime_t = type { i64, i32 }
%struct._address = type { i32, i32, ptr, ptr }
%struct.anon = type { i8, [3 x i8] }
%struct._wmem_tree_key_t = type { i32, ptr }
%struct._frame_data = type <{ i32, i32, i32, i32, i32, [4 x i8], i64, ptr, ptr, ptr, i8, i16, [5 x i8], %struct.nstime_t, %struct.nstime_t, i32, i32 }>
%struct._broadcastiso_connection_info_t = type { [6 x i8] }
%struct._bluetooth_eir_ad_data_t = type { i32, i32, ptr }

@broadcastiso_connection_info_tree = internal global ptr null, align 8
@btcommon_ad_handle = internal global ptr null, align 8

; Function Attrs: alwaysinline nounwind
define internal ptr @memcpy.inline(ptr noalias %0, ptr noalias %1, i64 %2) #6 {
  %4 = alloca ptr, align 8
  %5 = alloca ptr, align 8
  %6 = alloca i64, align 8
  store ptr %0, ptr %4, align 8
  store ptr %1, ptr %5, align 8
  store i64 %2, ptr %6, align 8
  %7 = load ptr, ptr %4, align 8
  %8 = load ptr, ptr %5, align 8
  %9 = load i64, ptr %6, align 8
  %10 = load ptr, ptr %4, align 8
  %11 = call i64 @llvm.objectsize.i64.p0(ptr %10, i1 false, i1 true, i1 true)
  %12 = call ptr @__memcpy_chk(ptr noundef %7, ptr noundef %8, i64 noundef %9, i64 noundef %11) #13
  ret ptr %12
}

; Function Attrs: null_pointer_is_valid sspstrong uwtable
define internal void @dissect_ad_eir(ptr noundef %0, i32 noundef %1, i32 noundef %2, i32 noundef %3, ptr noundef %4, ptr noundef %5, ptr noundef %6) #0 {
  %8 = alloca ptr, align 8
  %9 = alloca i32, align 4
  %10 = alloca i32, align 4
  %11 = alloca i32, align 4
  %12 = alloca ptr, align 8
  %13 = alloca ptr, align 8
  %14 = alloca ptr, align 8
  %15 = alloca ptr, align 8
  %16 = alloca i32, align 4
  %17 = alloca i32, align 4
  %18 = alloca i32, align 4
  %19 = alloca i32, align 4
  %20 = alloca i8, align 1
  %21 = alloca i32, align 4
  %22 = alloca i32, align 4
  %23 = alloca ptr, align 8
  %24 = alloca [5 x %struct._wmem_tree_key_t], align 16
  store ptr %0, ptr %8, align 8
  store i32 %1, ptr %9, align 4
  store i32 %2, ptr %10, align 4
  store i32 %3, ptr %11, align 4
  store ptr %4, ptr %12, align 8
  store ptr %5, ptr %13, align 8
  store ptr %6, ptr %14, align 8
  call void @llvm.lifetime.start.p0(i64 8, ptr %15) #13
  %25 = load ptr, ptr %13, align 8
  %26 = getelementptr inbounds nuw %struct._packet_info, ptr %25, i32 0, i32 51
  %27 = load ptr, ptr %26, align 8
  %28 = call noalias ptr @wmem_alloc0(ptr noundef %27, i64 noundef 16) #14
  store ptr %28, ptr %15, align 8
  %29 = load i32, ptr %9, align 4
  %30 = load ptr, ptr %15, align 8
  %31 = getelementptr inbounds nuw %struct._bluetooth_eir_ad_data_t, ptr %30, i32 0, i32 0
  store i32 %29, ptr %31, align 8
  %32 = load i32, ptr %10, align 4
  %33 = load ptr, ptr %15, align 8
  %34 = getelementptr inbounds nuw %struct._bluetooth_eir_ad_data_t, ptr %33, i32 0, i32 1
  store i32 %32, ptr %34, align 4
  %35 = load ptr, ptr @btcommon_ad_handle, align 8
  %36 = load ptr, ptr %8, align 8
  %37 = load ptr, ptr %13, align 8
  %38 = load ptr, ptr %14, align 8
  %39 = load ptr, ptr %15, align 8
  %40 = call i32 @call_dissector_with_data(ptr noundef %35, ptr noundef %36, ptr noundef %37, ptr noundef %38, ptr noundef %39)
  %41 = load ptr, ptr %13, align 8
  %42 = getelementptr inbounds nuw %struct._packet_info, ptr %41, i32 0, i32 8
  %43 = load ptr, ptr %42, align 8
  %44 = getelementptr inbounds nuw %struct._frame_data, ptr %43, i32 0, i32 11
  %45 = load i16, ptr %44, align 1
  %46 = lshr i16 %45, 3
  %47 = and i16 %46, 1
  %48 = zext i16 %47 to i32
  %49 = icmp ne i32 %48, 0
  br i1 %49, label %50, label %51

50:                                               ; preds = %7
  store i32 1, ptr %16, align 4
  br label %136

51:                                               ; preds = %7
  call void @llvm.lifetime.start.p0(i64 4, ptr %17) #13
  store i32 0, ptr %17, align 4
  br label %52

52:                                               ; preds = %133, %131, %51
  call void @llvm.lifetime.start.p0(i64 4, ptr %18) #13
  %53 = load ptr, ptr %8, align 8
  %54 = load i32, ptr %17, align 4
  %55 = call i32 @tvb_reported_length_remaining(ptr noundef %53, i32 noundef %54)
  store i32 %55, ptr %18, align 4
  call void @llvm.lifetime.start.p0(i64 4, ptr %19) #13
  call void @llvm.lifetime.start.p0(i64 1, ptr %20) #13
  %56 = load i32, ptr %18, align 4
  %57 = icmp ult i32 %56, 1
  br i1 %57, label %58, label %59

58:                                               ; preds = %52
  store i32 2, ptr %16, align 4
  br label %131

59:                                               ; preds = %52
  %60 = load ptr, ptr %8, align 8
  %61 = load i32, ptr %17, align 4
  %62 = call zeroext i8 @tvb_get_uint8(ptr noundef %60, i32 noundef %61)
  %63 = zext i8 %62 to i32
  store i32 %63, ptr %19, align 4
  %64 = load i32, ptr %17, align 4
  %65 = add i32 %64, 1
  store i32 %65, ptr %17, align 4
  %66 = load i32, ptr %19, align 4
  %67 = icmp ule i32 %66, 0
  br i1 %67, label %68, label %69

68:                                               ; preds = %59
  store i32 3, ptr %16, align 4
  br label %131

69:                                               ; preds = %59
  %70 = load i32, ptr %18, align 4
  %71 = add i32 %70, -1
  store i32 %71, ptr %18, align 4
  %72 = load i32, ptr %18, align 4
  %73 = load i32, ptr %19, align 4
  %74 = icmp ult i32 %72, %73
  br i1 %74, label %75, label %76

75:                                               ; preds = %69
  store i32 2, ptr %16, align 4
  br label %131

76:                                               ; preds = %69
  %77 = load ptr, ptr %8, align 8
  %78 = load i32, ptr %17, align 4
  %79 = call zeroext i8 @tvb_get_uint8(ptr noundef %77, i32 noundef %78)
  store i8 %79, ptr %20, align 1
  %80 = load i8, ptr %20, align 1
  %81 = zext i8 %80 to i32
  %82 = icmp eq i32 %81, 44
  br i1 %82, label %83, label %127

83:                                               ; preds = %76
  %84 = load i32, ptr %19, align 4
  %85 = icmp uge i32 %84, 34
  br i1 %85, label %86, label %127

86:                                               ; preds = %83
  call void @llvm.lifetime.start.p0(i64 4, ptr %21) #13
  %87 = load ptr, ptr %8, align 8
  %88 = load i32, ptr %17, align 4
  %89 = add i32 %88, 14
  %90 = call i32 @tvb_get_uint32(ptr noundef %87, i32 noundef %89, i32 noundef -2147483648)
  store i32 %90, ptr %21, align 4
  call void @llvm.lifetime.start.p0(i64 4, ptr %22) #13
  %91 = load i32, ptr %21, align 4
  %92 = and i32 %91, 4325375
  store i32 %92, ptr %22, align 4
  call void @llvm.lifetime.start.p0(i64 8, ptr %23) #13
  call void @llvm.lifetime.start.p0(i64 80, ptr %24) #13
  %93 = getelementptr [5 x %struct._wmem_tree_key_t], ptr %24, i64 0, i64 0
  %94 = getelementptr inbounds nuw %struct._wmem_tree_key_t, ptr %93, i32 0, i32 0
  store i32 1, ptr %94, align 16
  %95 = getelementptr [5 x %struct._wmem_tree_key_t], ptr %24, i64 0, i64 0
  %96 = getelementptr inbounds nuw %struct._wmem_tree_key_t, ptr %95, i32 0, i32 1
  store ptr %9, ptr %96, align 8
  %97 = getelementptr [5 x %struct._wmem_tree_key_t], ptr %24, i64 0, i64 1
  %98 = getelementptr inbounds nuw %struct._wmem_tree_key_t, ptr %97, i32 0, i32 0
  store i32 1, ptr %98, align 16
  %99 = getelementptr [5 x %struct._wmem_tree_key_t], ptr %24, i64 0, i64 1
  %100 = getelementptr inbounds nuw %struct._wmem_tree_key_t, ptr %99, i32 0, i32 1
  store ptr %10, ptr %100, align 8
  %101 = getelementptr [5 x %struct._wmem_tree_key_t], ptr %24, i64 0, i64 2
  %102 = getelementptr inbounds nuw %struct._wmem_tree_key_t, ptr %101, i32 0, i32 0
  store i32 1, ptr %102, align 16
  %103 = getelementptr [5 x %struct._wmem_tree_key_t], ptr %24, i64 0, i64 2
  %104 = getelementptr inbounds nuw %struct._wmem_tree_key_t, ptr %103, i32 0, i32 1
  store ptr %22, ptr %104, align 8
  %105 = getelementptr [5 x %struct._wmem_tree_key_t], ptr %24, i64 0, i64 3
  %106 = getelementptr inbounds nuw %struct._wmem_tree_key_t, ptr %105, i32 0, i32 0
  store i32 1, ptr %106, align 16
  %107 = getelementptr [5 x %struct._wmem_tree_key_t], ptr %24, i64 0, i64 3
  %108 = getelementptr inbounds nuw %struct._wmem_tree_key_t, ptr %107, i32 0, i32 1
  store ptr %11, ptr %108, align 8
  %109 = getelementptr [5 x %struct._wmem_tree_key_t], ptr %24, i64 0, i64 4
  %110 = getelementptr inbounds nuw %struct._wmem_tree_key_t, ptr %109, i32 0, i32 0
  store i32 0, ptr %110, align 16
  %111 = getelementptr [5 x %struct._wmem_tree_key_t], ptr %24, i64 0, i64 4
  %112 = getelementptr inbounds nuw %struct._wmem_tree_key_t, ptr %111, i32 0, i32 1
  store ptr null, ptr %112, align 8
  %113 = call ptr @wmem_file_scope()
  %114 = call noalias ptr @wmem_alloc0(ptr noundef %113, i64 noundef 6) #14
  store ptr %114, ptr %23, align 8
  %115 = load ptr, ptr %12, align 8
  %116 = icmp ne ptr %115, null
  br i1 %116, label %117, label %123

117:                                              ; preds = %86
  %118 = load ptr, ptr %23, align 8
  %119 = getelementptr inbounds nuw %struct._broadcastiso_connection_info_t, ptr %118, i32 0, i32 0
  %120 = getelementptr inbounds [6 x i8], ptr %119, i64 0, i64 0
  %121 = load ptr, ptr %12, align 8
  %122 = call ptr @memcpy.inline(ptr noundef %120, ptr noundef %121, i64 noundef 6) #13
  br label %123

123:                                              ; preds = %117, %86
  %124 = load ptr, ptr @broadcastiso_connection_info_tree, align 8
  %125 = getelementptr inbounds [5 x %struct._wmem_tree_key_t], ptr %24, i64 0, i64 0
  %126 = load ptr, ptr %23, align 8
  call void @wmem_tree_insert32_array(ptr noundef %124, ptr noundef %125, ptr noundef %126)
  call void @llvm.lifetime.end.p0(i64 80, ptr %24) #13
  call void @llvm.lifetime.end.p0(i64 8, ptr %23) #13
  call void @llvm.lifetime.end.p0(i64 4, ptr %22) #13
  call void @llvm.lifetime.end.p0(i64 4, ptr %21) #13
  br label %127

127:                                              ; preds = %123, %83, %76
  %128 = load i32, ptr %19, align 4
  %129 = load i32, ptr %17, align 4
  %130 = add i32 %129, %128
  store i32 %130, ptr %17, align 4
  store i32 0, ptr %16, align 4
  br label %131

131:                                              ; preds = %127, %75, %68, %58
  call void @llvm.lifetime.end.p0(i64 1, ptr %20) #13
  call void @llvm.lifetime.end.p0(i64 4, ptr %19) #13
  call void @llvm.lifetime.end.p0(i64 4, ptr %18) #13
  %132 = load i32, ptr %16, align 4
  switch i32 %132, label %134 [
    i32 0, label %133
    i32 3, label %52
  ]

133:                                              ; preds = %131
  br label %52

134:                                              ; preds = %131
  call void @llvm.lifetime.end.p0(i64 4, ptr %17) #13
  br label %135

135:                                              ; preds = %134
  store i32 0, ptr %16, align 4
  br label %136

136:                                              ; preds = %135, %50
  call void @llvm.lifetime.end.p0(i64 8, ptr %15) #13
  %137 = load i32, ptr %16, align 4
  switch i32 %137, label %139 [
    i32 0, label %138
    i32 1, label %138
  ]

138:                                              ; preds = %136, %136
  ret void

139:                                              ; preds = %136
  unreachable
}