; Function Attrs: null_pointer_is_valid sspstrong uwtable
define internal fastcc void @dissect_ad_eir(ptr noundef %0, i32 noundef %1, i32 noundef %2, i32 noundef %3, ptr noundef readonly captures(address_is_null) %4, ptr noundef %5, ptr noundef %6) unnamed_addr #0 {
  %8 = alloca i32, align 4
  %9 = alloca i32, align 4
  %10 = alloca i32, align 4
  %11 = alloca i32, align 4
  %12 = alloca [5 x %struct._wmem_tree_key_t], align 16
  store i32 %1, ptr %8, align 4
  store i32 %2, ptr %9, align 4
  store i32 %3, ptr %10, align 4
  %13 = getelementptr inbounds nuw i8, ptr %5, i64 408
  %14 = load ptr, ptr %13, align 8
  %15 = tail call noalias dereferenceable_or_null(16) ptr @wmem_alloc0(ptr noundef %14, i64 noundef 16) #13
  store i32 %1, ptr %15, align 8
  %16 = getelementptr inbounds nuw i8, ptr %15, i64 4
  store i32 %2, ptr %16, align 4
  %17 = load ptr, ptr @btcommon_ad_handle, align 8
  %18 = tail call i32 @call_dissector_with_data(ptr noundef %17, ptr noundef %0, ptr noundef %5, ptr noundef %6, ptr noundef %15)
  %19 = getelementptr inbounds nuw i8, ptr %5, i64 80
  %20 = load ptr, ptr %19, align 8
  %21 = getelementptr inbounds nuw i8, ptr %20, i64 57
  %22 = load i16, ptr %21, align 1
  %23 = and i16 %22, 8
  %.not = icmp eq i16 %23, 0
  br i1 %.not, label %.preheader, label %.thread

.preheader:                                       ; preds = %7
  %24 = tail call i32 @tvb_reported_length_remaining(ptr noundef %0, i32 noundef 0)
  %25 = icmp eq i32 %24, 0
  br i1 %25, label %.thread, label %.lr.ph

.lr.ph:                                           ; preds = %.preheader
  %26 = getelementptr inbounds nuw i8, ptr %12, i64 8
  %27 = getelementptr inbounds nuw i8, ptr %12, i64 16
  %28 = getelementptr inbounds nuw i8, ptr %12, i64 24
  %29 = getelementptr inbounds nuw i8, ptr %12, i64 32
  %30 = getelementptr inbounds nuw i8, ptr %12, i64 40
  %31 = getelementptr inbounds nuw i8, ptr %12, i64 48
  %32 = getelementptr inbounds nuw i8, ptr %12, i64 56
  %33 = getelementptr inbounds nuw i8, ptr %12, i64 64
  %34 = getelementptr inbounds nuw i8, ptr %12, i64 72
  %.not36 = icmp eq ptr %4, null
  br label %35

35:                                               ; preds = %.lr.ph, %59
  %36 = phi i32 [ %24, %.lr.ph ], [ %60, %59 ]
  %.03239 = phi i32 [ 0, %.lr.ph ], [ %.1, %59 ]
  %37 = call zeroext i8 @tvb_get_uint8(ptr noundef %0, i32 noundef %.03239)
  %38 = zext i8 %37 to i32
  %39 = add i32 %.03239, 1
  %40 = icmp eq i8 %37, 0
  br i1 %40, label %59, label %41

41:                                               ; preds = %35
  %42 = add i32 %36, -1
  %43 = icmp ult i32 %42, %38
  br i1 %43, label %.thread, label %44

44:                                               ; preds = %41
  %45 = call zeroext i8 @tvb_get_uint8(ptr noundef %0, i32 noundef %39)
  %46 = icmp eq i8 %45, 44
  %47 = icmp ugt i8 %37, 33
  %or.cond = and i1 %47, %46
  br i1 %or.cond, label %48, label %57

48:                                               ; preds = %44
  %49 = add i32 %.03239, 15
  %50 = call i32 @tvb_get_uint32(ptr noundef %0, i32 noundef %49, i32 noundef -2147483648)
  call void @llvm.lifetime.start.p0(i64 4, ptr nonnull %11) #12
  %51 = and i32 %50, 4325375
  store i32 %51, ptr %11, align 4
  call void @llvm.lifetime.start.p0(i64 80, ptr nonnull %12) #12
  store i32 1, ptr %12, align 16
  store ptr %8, ptr %26, align 8
  store i32 1, ptr %27, align 16
  store ptr %9, ptr %28, align 8
  store i32 1, ptr %29, align 16
  store ptr %11, ptr %30, align 8
  store i32 1, ptr %31, align 16
  store ptr %10, ptr %32, align 8
  store i32 0, ptr %33, align 16
  store ptr null, ptr %34, align 8
  %52 = call ptr @wmem_file_scope()
  %53 = call noalias dereferenceable_or_null(6) ptr @wmem_alloc0(ptr noundef %52, i64 noundef 6) #13
  br i1 %.not36, label %55, label %54

54:                                               ; preds = %48
  call void @llvm.memcpy.p0.p0.i64(ptr noundef align 1 dereferenceable(6) %53, ptr noundef nonnull align 1 dereferenceable(6) %4, i64 noundef 6, i1 noundef false) #12
  br label %55

55:                                               ; preds = %54, %48
  %56 = load ptr, ptr @broadcastiso_connection_info_tree, align 8
  call void @wmem_tree_insert32_array(ptr noundef %56, ptr noundef nonnull %12, ptr noundef %53)
  call void @llvm.lifetime.end.p0(i64 80, ptr nonnull %12) #12
  call void @llvm.lifetime.end.p0(i64 4, ptr nonnull %11) #12
  br label %57

57:                                               ; preds = %55, %44
  %58 = add i32 %39, %38
  br label %59

59:                                               ; preds = %35, %57
  %.1 = phi i32 [ %58, %57 ], [ %39, %35 ]
  %60 = call i32 @tvb_reported_length_remaining(ptr noundef %0, i32 noundef %.1)
  %61 = icmp eq i32 %60, 0
  br i1 %61, label %.thread, label %35

.thread:                                          ; preds = %59, %41, %.preheader, %7
  ret void
}